; Function Attrs: mustprogress uwtable
define hidden void @_ZN2dd11pdd_manager10init_dmarkEv(ptr noundef nonnull align 8 dereferenceable(952) %0) local_unnamed_addr #3 align 2 {
  %2 = getelementptr inbounds nuw i8, ptr %0, i64 856
  %3 = load ptr, ptr %0, align 8, !tbaa !91
  %4 = icmp eq ptr %3, null
  br i1 %4, label %_ZNK6vectorIN2dd11pdd_manager4nodeELb0EjE4sizeEv.exit.thread, label %_ZNK6vectorIN2dd11pdd_manager4nodeELb0EjE4sizeEv.exit

_ZNK6vectorIN2dd11pdd_manager4nodeELb0EjE4sizeEv.exit: ; preds = %1
  %5 = getelementptr inbounds i8, ptr %3, i64 -4
  %6 = load i32, ptr %5, align 4, !tbaa !83
  %7 = load ptr, ptr %2, align 8, !tbaa !53
  %8 = icmp eq ptr %7, null
  br i1 %8, label %_ZNK6vectorIjLb0EjE4sizeEv.exit.i, label %_ZNK6vectorIjLb0EjE4sizeEv.exit.thread.i

_ZNK6vectorIN2dd11pdd_manager4nodeELb0EjE4sizeEv.exit.thread: ; preds = %1
  %9 = load ptr, ptr %2, align 8, !tbaa !53
  %10 = icmp eq ptr %9, null
  br i1 %10, label %_ZN6vectorIjLb0EjE7reserveEj.exit, label %_ZNK6vectorIjLb0EjE4sizeEv.exit.thread.i.thread

_ZNK6vectorIjLb0EjE4sizeEv.exit.thread.i.thread:  ; preds = %_ZNK6vectorIN2dd11pdd_manager4nodeELb0EjE4sizeEv.exit.thread
  %11 = getelementptr inbounds i8, ptr %9, i64 -4
  br label %14

_ZNK6vectorIjLb0EjE4sizeEv.exit.i:                ; preds = %_ZNK6vectorIN2dd11pdd_manager4nodeELb0EjE4sizeEv.exit
  %.not.not.i = icmp eq i32 %6, 0
  br i1 %.not.not.i, label %_ZN6vectorIjLb0EjE6resizeEj.exit, label %thread-pre-split.i.preheader

_ZNK6vectorIjLb0EjE4sizeEv.exit.thread.i:         ; preds = %_ZNK6vectorIN2dd11pdd_manager4nodeELb0EjE4sizeEv.exit
  %12 = getelementptr inbounds i8, ptr %7, i64 -4
  %13 = load i32, ptr %12, align 4, !tbaa !83
  %.not15.i = icmp ugt i32 %6, %13
  br i1 %.not15.i, label %thread-pre-split.i.preheader, label %14

thread-pre-split.i.preheader:                     ; preds = %_ZNK6vectorIjLb0EjE4sizeEv.exit.i, %_ZNK6vectorIjLb0EjE4sizeEv.exit.thread.i
  %.ph26 = phi ptr [ %7, %_ZNK6vectorIjLb0EjE4sizeEv.exit.thread.i ], [ null, %_ZNK6vectorIjLb0EjE4sizeEv.exit.i ]
  %.0.i16.i.ph = phi i32 [ %13, %_ZNK6vectorIjLb0EjE4sizeEv.exit.thread.i ], [ 0, %_ZNK6vectorIjLb0EjE4sizeEv.exit.i ]
  br label %thread-pre-split.i

14:                                               ; preds = %_ZNK6vectorIjLb0EjE4sizeEv.exit.thread.i.thread, %_ZNK6vectorIjLb0EjE4sizeEv.exit.thread.i
  %15 = phi ptr [ %11, %_ZNK6vectorIjLb0EjE4sizeEv.exit.thread.i.thread ], [ %12, %_ZNK6vectorIjLb0EjE4sizeEv.exit.thread.i ]
  %.0.i816 = phi i32 [ 0, %_ZNK6vectorIjLb0EjE4sizeEv.exit.thread.i.thread ], [ %6, %_ZNK6vectorIjLb0EjE4sizeEv.exit.thread.i ]
  store i32 %.0.i816, ptr %15, align 4, !tbaa !83
  br label %_ZN6vectorIjLb0EjE6resizeEj.exit

thread-pre-split.i:                               ; preds = %thread-pre-split.i.preheader, %_ZNK6vectorIjLb0EjE8capacityEv.exit.thread.i
  %16 = phi ptr [ %.pr.pre.i, %_ZNK6vectorIjLb0EjE8capacityEv.exit.thread.i ], [ %.ph26, %thread-pre-split.i.preheader ]
  %17 = icmp eq ptr %16, null
  br i1 %17, label %_ZNK6vectorIjLb0EjE8capacityEv.exit.thread.i, label %_ZNK6vectorIjLb0EjE8capacityEv.exit.i

_ZNK6vectorIjLb0EjE8capacityEv.exit.i:            ; preds = %thread-pre-split.i
  %18 = getelementptr inbounds i8, ptr %16, i64 -8
  %19 = load i32, ptr %18, align 4, !tbaa !83
  %20 = icmp ugt i32 %6, %19
  br i1 %20, label %_ZNK6vectorIjLb0EjE8capacityEv.exit.thread.i, label %21

_ZNK6vectorIjLb0EjE8capacityEv.exit.thread.i:     ; preds = %_ZNK6vectorIjLb0EjE8capacityEv.exit.i, %thread-pre-split.i
  tail call void @_ZN6vectorIjLb0EjE13expand_vectorEv(ptr noundef nonnull align 8 dereferenceable(8) %2)
  %.pr.pre.i = load ptr, ptr %2, align 8, !tbaa !53
  br label %thread-pre-split.i, !llvm.loop !117

21:                                               ; preds = %_ZNK6vectorIjLb0EjE8capacityEv.exit.i
  %22 = getelementptr inbounds i8, ptr %16, i64 -4
  store i32 %6, ptr %22, align 4, !tbaa !83
  %.not1218.i = icmp eq i32 %.0.i16.i.ph, %6
  br i1 %.not1218.i, label %_ZN6vectorIjLb0EjE6resizeEj.exit, label %.lr.ph.preheader.i

.lr.ph.preheader.i:                               ; preds = %21
  %23 = zext i32 %6 to i64
  %24 = zext i32 %.0.i16.i.ph to i64
  %25 = getelementptr i32, ptr %16, i64 %24
  %26 = sub nsw i64 %23, %24
  %27 = shl nsw i64 %26, 2
  tail call void @llvm.memset.p0.i64(ptr align 4 %25, i8 0, i64 %27, i1 false), !tbaa !83
  br label %_ZN6vectorIjLb0EjE6resizeEj.exit

_ZN6vectorIjLb0EjE6resizeEj.exit:                 ; preds = %_ZNK6vectorIjLb0EjE4sizeEv.exit.i, %14, %21, %.lr.ph.preheader.i
  %.pr = load ptr, ptr %0, align 8, !tbaa !91
  %28 = getelementptr inbounds nuw i8, ptr %0, i64 704
  %29 = icmp eq ptr %.pr, null
  br i1 %29, label %_ZN6vectorIjLb0EjE7reserveEj.exit, label %_ZNK6vectorIN2dd11pdd_manager4nodeELb0EjE4sizeEv.exit2

_ZNK6vectorIN2dd11pdd_manager4nodeELb0EjE4sizeEv.exit2: ; preds = %_ZN6vectorIjLb0EjE6resizeEj.exit
  %30 = getelementptr inbounds i8, ptr %.pr, i64 -4
  %31 = load i32, ptr %30, align 4, !tbaa !83
  %32 = load ptr, ptr %28, align 8, !tbaa !53
  %33 = icmp eq ptr %32, null
  br i1 %33, label %_ZNK6vectorIjLb0EjE4sizeEv.exit.i4, label %_ZNK6vectorIjLb0EjE4sizeEv.exit.thread.i3

_ZNK6vectorIjLb0EjE4sizeEv.exit.i4:               ; preds = %_ZNK6vectorIN2dd11pdd_manager4nodeELb0EjE4sizeEv.exit2
  %.not.i = icmp eq i32 %31, 0
  br i1 %.not.i, label %_ZN6vectorIjLb0EjE7reserveEj.exit, label %_ZNK6vectorIjLb0EjE4sizeEv.exit.i.i.preheader

_ZNK6vectorIjLb0EjE4sizeEv.exit.thread.i3:        ; preds = %_ZNK6vectorIN2dd11pdd_manager4nodeELb0EjE4sizeEv.exit2
  %34 = getelementptr inbounds i8, ptr %32, i64 -4
  %35 = load i32, ptr %34, align 4, !tbaa !83
  %36 = icmp ugt i32 %31, %35
  br i1 %36, label %_ZNK6vectorIjLb0EjE4sizeEv.exit.i.i.preheader, label %_ZN6vectorIjLb0EjE7reserveEj.exit

_ZNK6vectorIjLb0EjE4sizeEv.exit.i.i.preheader:    ; preds = %_ZNK6vectorIjLb0EjE4sizeEv.exit.i4, %_ZNK6vectorIjLb0EjE4sizeEv.exit.thread.i3
  %.ph = phi ptr [ %32, %_ZNK6vectorIjLb0EjE4sizeEv.exit.thread.i3 ], [ null, %_ZNK6vectorIjLb0EjE4sizeEv.exit.i4 ]
  %.0.i16.i.i.ph = phi i32 [ %35, %_ZNK6vectorIjLb0EjE4sizeEv.exit.thread.i3 ], [ 0, %_ZNK6vectorIjLb0EjE4sizeEv.exit.i4 ]
  br label %_ZNK6vectorIjLb0EjE4sizeEv.exit.i.i

_ZNK6vectorIjLb0EjE4sizeEv.exit.i.i:              ; preds = %_ZNK6vectorIjLb0EjE4sizeEv.exit.i.i.preheader, %_ZNK6vectorIjLb0EjE8capacityEv.exit.thread.i.i
  %37 = phi ptr [ %.pr.pre.i.i, %_ZNK6vectorIjLb0EjE8capacityEv.exit.thread.i.i ], [ %.ph, %_ZNK6vectorIjLb0EjE4sizeEv.exit.i.i.preheader ]
  %38 = icmp eq ptr %37, null
  br i1 %38, label %_ZNK6vectorIjLb0EjE8capacityEv.exit.thread.i.i, label %_ZNK6vectorIjLb0EjE8capacityEv.exit.i.i

_ZNK6vectorIjLb0EjE8capacityEv.exit.i.i:          ; preds = %_ZNK6vectorIjLb0EjE4sizeEv.exit.i.i
  %39 = getelementptr inbounds i8, ptr %37, i64 -8
  %40 = load i32, ptr %39, align 4, !tbaa !83
  %41 = icmp ugt i32 %31, %40
  br i1 %41, label %_ZNK6vectorIjLb0EjE8capacityEv.exit.thread.i.i, label %42

_ZNK6vectorIjLb0EjE8capacityEv.exit.thread.i.i:   ; preds = %_ZNK6vectorIjLb0EjE8capacityEv.exit.i.i, %_ZNK6vectorIjLb0EjE4sizeEv.exit.i.i
  tail call void @_ZN6vectorIjLb0EjE13expand_vectorEv(ptr noundef nonnull align 8 dereferenceable(8) %28)
  %.pr.pre.i.i = load ptr, ptr %28, align 8, !tbaa !53
  br label %_ZNK6vectorIjLb0EjE4sizeEv.exit.i.i, !llvm.loop !117

42:                                               ; preds = %_ZNK6vectorIjLb0EjE8capacityEv.exit.i.i
  %43 = getelementptr inbounds i8, ptr %37, i64 -4
  store i32 %31, ptr %43, align 4, !tbaa !83
  %.not1218.i.i = icmp eq i32 %.0.i16.i.i.ph, %31
  br i1 %.not1218.i.i, label %_ZN6vectorIjLb0EjE7reserveEj.exit, label %.lr.ph.preheader.i.i

.lr.ph.preheader.i.i:                             ; preds = %42
  %44 = zext i32 %31 to i64
  %45 = zext i32 %.0.i16.i.i.ph to i64
  %46 = getelementptr i32, ptr %37, i64 %45
  %47 = sub nsw i64 %44, %45
  %48 = shl nsw i64 %47, 2
  tail call void @llvm.memset.p0.i64(ptr align 4 %46, i8 0, i64 %48, i1 false), !tbaa !83
  br label %_ZN6vectorIjLb0EjE7reserveEj.exit

_ZN6vectorIjLb0EjE7reserveEj.exit:                ; preds = %_ZN6vectorIjLb0EjE6resizeEj.exit, %_ZNK6vectorIN2dd11pdd_manager4nodeELb0EjE4sizeEv.exit.thread, %_ZNK6vectorIjLb0EjE4sizeEv.exit.i4, %_ZNK6vectorIjLb0EjE4sizeEv.exit.thread.i3, %42, %.lr.ph.preheader.i.i
  %49 = getelementptr inbounds nuw i8, ptr %0, i64 864
  %50 = load i32, ptr %49, align 8, !tbaa !79
  %51 = add i32 %50, 1
  store i32 %51, ptr %49, align 8, !tbaa !79
  %52 = icmp eq i32 %51, 0
  br i1 %52, label %53, label %62

53:                                               ; preds = %_ZN6vectorIjLb0EjE7reserveEj.exit
  %54 = load ptr, ptr %2, align 8, !tbaa !53
  %55 = icmp eq ptr %54, null
  br i1 %55, label %_ZN6vectorIjLb0EjE4fillERKj.exit, label %_ZN6vectorIjLb0EjE3endEv.exit.i

_ZN6vectorIjLb0EjE3endEv.exit.i:                  ; preds = %53
  %56 = getelementptr inbounds i8, ptr %54, i64 -4
  %57 = load i32, ptr %56, align 4, !tbaa !83
  %.not6.i = icmp eq i32 %57, 0
  br i1 %.not6.i, label %_ZN6vectorIjLb0EjE4fillERKj.exit, label %.lr.ph.i.preheader

.lr.ph.i.preheader:                               ; preds = %_ZN6vectorIjLb0EjE3endEv.exit.i
  %58 = zext i32 %57 to i64
  %59 = shl nuw nsw i64 %58, 2
  tail call void @llvm.memset.p0.i64(ptr nonnull align 4 %54, i8 0, i64 %59, i1 false), !tbaa !83
  %.pre = load i32, ptr %49, align 8, !tbaa !79
  %60 = add i32 %.pre, 1
  br label %_ZN6vectorIjLb0EjE4fillERKj.exit

_ZN6vectorIjLb0EjE4fillERKj.exit:                 ; preds = %.lr.ph.i.preheader, %53, %_ZN6vectorIjLb0EjE3endEv.exit.i
  %61 = phi i32 [ %60, %.lr.ph.i.preheader ], [ 1, %53 ], [ 1, %_ZN6vectorIjLb0EjE3endEv.exit.i ]
  store i32 %61, ptr %49, align 8, !tbaa !79
  br label %62

62:                                               ; preds = %_ZN6vectorIjLb0EjE4fillERKj.exit, %_ZN6vectorIjLb0EjE7reserveEj.exit
  ret void
}